; Function Attrs: mustprogress uwtable
define void @_ZN6icu_756number4impl20NumberPropertyMapper6createERKNS1_23DecimalFormatPropertiesERKNS_20DecimalFormatSymbolsERNS1_22DecimalFormatWarehouseER10UErrorCode(ptr noalias sret(%"class.icu_75::number::UnlocalizedNumberFormatter") align 8 %agg.result, ptr noundef nonnull align 8 dereferenceable(757) %properties, ptr noundef nonnull align 8 dereferenceable(2883) %symbols, ptr noundef nonnull align 8 dereferenceable(2480) %warehouse, ptr noundef nonnull align 4 dereferenceable(4) %status) local_unnamed_addr #1 align 2 personality ptr @__gxx_personality_v0 {
entry:
  %ref.tmp = alloca %"class.icu_75::number::UnlocalizedNumberFormatter", align 8
  %ref.tmp1 = alloca %"struct.icu_75::number::impl::MacroProps", align 8
  call void @_ZN6icu_756number15NumberFormatter4withEv(ptr nonnull sret(%"class.icu_75::number::UnlocalizedNumberFormatter") align 8 %ref.tmp)
  invoke void @_ZN6icu_756number4impl20NumberPropertyMapper8oldToNewERKNS1_23DecimalFormatPropertiesERKNS_20DecimalFormatSymbolsERNS1_22DecimalFormatWarehouseEPS3_R10UErrorCode(ptr nonnull sret(%"struct.icu_75::number::impl::MacroProps") align 8 %ref.tmp1, ptr noundef nonnull align 8 dereferenceable(757) %properties, ptr noundef nonnull align 8 dereferenceable(2883) %symbols, ptr noundef nonnull align 8 dereferenceable(2480) %warehouse, ptr noundef null, ptr noundef nonnull align 4 dereferenceable(4) %status)
          to label %invoke.cont unwind label %lpad

invoke.cont:                                      ; preds = %entry
  invoke void @_ZNO6icu_756number23NumberFormatterSettingsINS0_26UnlocalizedNumberFormatterEE6macrosEONS0_4impl10MacroPropsE(ptr sret(%"class.icu_75::number::UnlocalizedNumberFormatter") align 8 %agg.result, ptr noundef nonnull align 8 dereferenceable(472) %ref.tmp, ptr noundef nonnull align 8 dereferenceable(472) %ref.tmp1)
          to label %invoke.cont3 unwind label %lpad2

invoke.cont3:                                     ; preds = %invoke.cont
  %locale.i = getelementptr inbounds i8, ptr %ref.tmp1, i64 248
  call void @_ZN6icu_756LocaleD1Ev(ptr noundef nonnull align 8 dereferenceable(217) %locale.i) #12
  %unitDisplayCase.i = getelementptr inbounds i8, ptr %ref.tmp1, i64 208
  call void @_ZN6icu_756number4impl10StringPropD1Ev(ptr noundef nonnull align 8 dereferenceable(16) %unitDisplayCase.i) #12
  %usage.i = getelementptr inbounds i8, ptr %ref.tmp1, i64 192
  call void @_ZN6icu_756number4impl10StringPropD1Ev(ptr noundef nonnull align 8 dereferenceable(16) %usage.i) #12
  %scale.i = getelementptr inbounds i8, ptr %ref.tmp1, i64 168
  call void @_ZN6icu_756number5ScaleD1Ev(ptr noundef nonnull align 8 dereferenceable(20) %scale.i) #12
  %symbols.i = getelementptr inbounds i8, ptr %ref.tmp1, i64 136
  call void @_ZN6icu_756number4impl14SymbolsWrapperD1Ev(ptr noundef nonnull align 8 dereferenceable(16) %symbols.i) #12
  %perUnit.i = getelementptr inbounds i8, ptr %ref.tmp1, i64 40
  call void @_ZN6icu_7511MeasureUnitD1Ev(ptr noundef nonnull align 8 dereferenceable(19) %perUnit.i) #12
  %unit.i = getelementptr inbounds i8, ptr %ref.tmp1, i64 16
  call void @_ZN6icu_7511MeasureUnitD1Ev(ptr noundef nonnull align 8 dereferenceable(19) %unit.i) #12
  %locale.i.i.i = getelementptr inbounds i8, ptr %ref.tmp, i64 248
  call void @_ZN6icu_756LocaleD1Ev(ptr noundef nonnull align 8 dereferenceable(217) %locale.i.i.i) #12
  %unitDisplayCase.i.i.i = getelementptr inbounds i8, ptr %ref.tmp, i64 208
  call void @_ZN6icu_756number4impl10StringPropD1Ev(ptr noundef nonnull align 8 dereferenceable(16) %unitDisplayCase.i.i.i) #12
  %usage.i.i.i = getelementptr inbounds i8, ptr %ref.tmp, i64 192
  call void @_ZN6icu_756number4impl10StringPropD1Ev(ptr noundef nonnull align 8 dereferenceable(16) %usage.i.i.i) #12
  %scale.i.i.i = getelementptr inbounds i8, ptr %ref.tmp, i64 168
  call void @_ZN6icu_756number5ScaleD1Ev(ptr noundef nonnull align 8 dereferenceable(20) %scale.i.i.i) #12
  %symbols.i.i.i = getelementptr inbounds i8, ptr %ref.tmp, i64 136
  call void @_ZN6icu_756number4impl14SymbolsWrapperD1Ev(ptr noundef nonnull align 8 dereferenceable(16) %symbols.i.i.i) #12
  %perUnit.i.i.i = getelementptr inbounds i8, ptr %ref.tmp, i64 40
  call void @_ZN6icu_7511MeasureUnitD1Ev(ptr noundef nonnull align 8 dereferenceable(19) %perUnit.i.i.i) #12
  %unit.i.i.i = getelementptr inbounds i8, ptr %ref.tmp, i64 16
  call void @_ZN6icu_7511MeasureUnitD1Ev(ptr noundef nonnull align 8 dereferenceable(19) %unit.i.i.i) #12
  ret void

lpad:                                             ; preds = %entry
  %0 = landingpad { ptr, i32 }
          cleanup
  br label %ehcleanup

lpad2:                                            ; preds = %invoke.cont
  %1 = landingpad { ptr, i32 }
          cleanup
  call void @_ZN6icu_756number4impl10MacroPropsD2Ev(ptr noundef nonnull align 8 dereferenceable(472) %ref.tmp1) #12
  br label %ehcleanup

ehcleanup:                                        ; preds = %lpad2, %lpad
  %.pn = phi { ptr, i32 } [ %1, %lpad2 ], [ %0, %lpad ]
  call void @_ZN6icu_756number26UnlocalizedNumberFormatterD2Ev(ptr noundef nonnull align 8 dereferenceable(473) %ref.tmp) #12
  resume { ptr, i32 } %.pn
}